; Function Attrs: inlinehint mustprogress optsize uwtable
define internal noundef nonnull ptr @"_ZZN8nanobind6detail11func_createILb0ELb1EZL29nanobind_init_test_thread_extRNS_7module_EE3$_2vJR7CounterEJLm0EEJNS_5scopeENS_4nameEA8_cEEEP7_objectOT1_PFT2_DpT3_ESt16integer_sequenceImJXspT4_EEEDpRKT5_ENUlPvPSB_PhNS_9rv_policyEPNS0_12cleanup_listEE_8__invokeESP_SQ_SR_SS_SU_"(ptr readnone captures(none) %0, ptr noundef readonly captures(none) %1, ptr noundef readonly captures(none) %2, i32 %3, ptr noundef %4) #7 align 2 personality ptr @__gxx_personality_v0 {
  %6 = alloca %"struct.nanobind::detail::tuple.26", align 8
  call void @llvm.lifetime.start.p0(i64 8, ptr nonnull %6) #11
  %7 = load ptr, ptr %1, align 8, !tbaa !56
  %8 = load i8, ptr %2, align 1, !tbaa !34
  %9 = call noundef zeroext i1 @_ZN8nanobind6detail11nb_type_getEPKSt9type_infoP7_objecthPNS0_12cleanup_listEPPv(ptr noundef nonnull @_ZTI7Counter, ptr noundef %7, i8 noundef zeroext %8, ptr noundef %4, ptr noundef nonnull align 8 dereferenceable(8) %6) #12
  br i1 %9, label %10, label %"_ZZN8nanobind6detail11func_createILb0ELb1EZL29nanobind_init_test_thread_extRNS_7module_EE3$_2vJR7CounterEJLm0EEJNS_5scopeENS_4nameEA8_cEEEP7_objectOT1_PFT2_DpT3_ESt16integer_sequenceImJXspT4_EEEDpRKT5_ENKUlPvPSB_PhNS_9rv_policyEPNS0_12cleanup_listEE_clESP_SQ_SR_SS_SU_.exit"

10:                                               ; preds = %5
  %11 = load ptr, ptr %6, align 8, !tbaa !57
  call void @_ZN8nanobind6detail27raise_next_overload_if_nullEPv(ptr noundef %11) #10
  %12 = load ptr, ptr %6, align 8, !tbaa !57
  %13 = load i64, ptr %12, align 8, !tbaa !52
  %14 = add i64 %13, 1
  store i64 %14, ptr %12, align 8, !tbaa !52
  %15 = load i64, ptr @_Py_NoneStruct, align 8, !tbaa !50
  %16 = add nsw i64 %15, 1
  store i64 %16, ptr @_Py_NoneStruct, align 8, !tbaa !50
  br label %"_ZZN8nanobind6detail11func_createILb0ELb1EZL29nanobind_init_test_thread_extRNS_7module_EE3$_2vJR7CounterEJLm0EEJNS_5scopeENS_4nameEA8_cEEEP7_objectOT1_PFT2_DpT3_ESt16integer_sequenceImJXspT4_EEEDpRKT5_ENKUlPvPSB_PhNS_9rv_policyEPNS0_12cleanup_listEE_clESP_SQ_SR_SS_SU_.exit"

"_ZZN8nanobind6detail11func_createILb0ELb1EZL29nanobind_init_test_thread_extRNS_7module_EE3$_2vJR7CounterEJLm0EEJNS_5scopeENS_4nameEA8_cEEEP7_objectOT1_PFT2_DpT3_ESt16integer_sequenceImJXspT4_EEEDpRKT5_ENKUlPvPSB_PhNS_9rv_policyEPNS0_12cleanup_listEE_clESP_SQ_SR_SS_SU_.exit": ; preds = %5, %10
  %.0.i = phi ptr [ @_Py_NoneStruct, %10 ], [ inttoptr (i64 1 to ptr), %5 ]
  call void @llvm.lifetime.end.p0(i64 8, ptr nonnull %6) #11
  ret ptr %.0.i
}